; Function Attrs: nounwind uwtable
define internal fastcc range(i32 -1, 1) i32 @ensure_leading_directories(ptr noundef %0) unnamed_addr #0 {
  %2 = tail call i32 @safe_create_leading_directories(ptr noundef %0) #18
  switch i32 %2, label %3 [
    i32 0, label %8
    i32 -3, label %8
  ]

3:                                                ; preds = %1
  %4 = load i32, ptr @git_gettext_enabled, align 4, !tbaa !4
  %.not4.i = icmp eq i32 %4, 0
  br i1 %.not4.i, label %_.exit, label %5

5:                                                ; preds = %3
  %6 = tail call ptr @dcgettext(ptr noundef null, ptr noundef nonnull @.str.84, i32 noundef 5) #18
  br label %_.exit

_.exit:                                           ; preds = %3, %5
  %.0.i = phi ptr [ %6, %5 ], [ @.str.84, %3 ]
  %7 = tail call i32 (ptr, ...) @error(ptr noundef %.0.i, ptr noundef %0) #18
  br label %8

8:                                                ; preds = %1, %1, %_.exit
  %.0 = phi i32 [ -1, %_.exit ], [ 0, %1 ], [ 0, %1 ]
  ret i32 %.0
}